; Function Attrs: nofree norecurse nosync nounwind memory(read, inaccessiblemem: none) uwtable
define hidden zeroext i1 @Wayland_HasScreenKeyboardSupport(ptr noundef readonly captures(none) %0) local_unnamed_addr #4 {
  %2 = getelementptr inbounds nuw i8, ptr %0, i64 1656
  %3 = load ptr, ptr %2, align 8
  %4 = getelementptr inbounds nuw i8, ptr %3, i64 144
  %5 = load ptr, ptr %4, align 8
  %6 = getelementptr inbounds nuw i8, ptr %3, i64 248
  %7 = getelementptr inbounds nuw i8, ptr %3, i64 256
  %.pn11 = load ptr, ptr %7, align 8
  %.not.not12 = icmp eq ptr %.pn11, %6
  br i1 %.not.not12, label %._crit_edge, label %.lr.ph

8:                                                ; preds = %.lr.ph
  %9 = getelementptr inbounds nuw i8, ptr %.pn13, i64 8
  %.pn = load ptr, ptr %9, align 8
  %.not.not = icmp eq ptr %.pn, %6
  br i1 %.not.not, label %._crit_edge, label %.lr.ph, !llvm.loop !8

.lr.ph:                                           ; preds = %1, %8
  %.pn13 = phi ptr [ %.pn, %8 ], [ %.pn11, %1 ]
  %10 = getelementptr inbounds nuw i8, ptr %.pn13, i64 24
  %11 = load ptr, ptr %10, align 8
  %.not10 = icmp eq ptr %11, null
  br i1 %.not10, label %8, label %._crit_edge

._crit_edge:                                      ; preds = %8, %.lr.ph, %1
  %.not.not.lcssa = phi i1 [ true, %1 ], [ %.not10, %.lr.ph ], [ %.not10, %8 ]
  %12 = icmp ne ptr %5, null
  %13 = select i1 %.not.not.lcssa, i1 %12, i1 false
  ret i1 %13
}